; Function Attrs: mustprogress uwtable
define hidden noundef nonnull ptr @_ZN11z3_replayer14get_int64_addrEj(ptr noundef nonnull readonly align 8 captures(none) dereferenceable(8) %0, i32 noundef %1) local_unnamed_addr #5 align 2 {
  %3 = load ptr, ptr %0, align 8, !tbaa !17
  tail call void @_ZNK11z3_replayer3imp9check_argEjNS0_10value_kindE(ptr noundef nonnull align 8 dereferenceable(184) %3, i32 noundef %1, i32 noundef 0)
  %4 = getelementptr inbounds nuw i8, ptr %3, i64 136
  %5 = load ptr, ptr %4, align 8, !tbaa !69
  %6 = zext i32 %1 to i64
  %7 = getelementptr inbounds nuw %"struct.z3_replayer::imp::value", ptr %5, i64 %6, i32 1
  ret ptr %7
}